; Function Attrs: nounwind uwtable
define hidden void @je_pa_shard_set_deferral_allowed(ptr noundef %0, ptr noundef %1, i1 noundef zeroext %2) local_unnamed_addr #0 {
  %4 = getelementptr inbounds nuw i8, ptr %1, i64 16
  %5 = load atomic i8, ptr %4 monotonic, align 1
  %6 = trunc i8 %5 to i1
  br i1 %6, label %7, label %9

7:                                                ; preds = %3
  %8 = getelementptr inbounds nuw i8, ptr %1, i64 62384
  tail call void @je_hpa_shard_set_deferral_allowed(ptr noundef %0, ptr noundef nonnull %8, i1 noundef zeroext %2) #4
  br label %9

9:                                                ; preds = %7, %3
  ret void
}